; Function Attrs: mustprogress nofree norecurse nosync nounwind willreturn memory(read, argmem: readwrite, inaccessiblemem: none) uwtable
define range(i32 0, 2) i32 @ossl_quic_rcidm_peek_retire_seq_num(ptr noundef readonly captures(none) %0, ptr noundef writeonly captures(address_is_null) %1) local_unnamed_addr #4 {
  %3 = getelementptr inbounds nuw i8, ptr %0, i64 104
  %.val.i = load ptr, ptr %3, align 8, !tbaa !23
  %4 = icmp eq ptr %.val.i, null
  br i1 %4, label %rcidm_get_retire.exit, label %5

5:                                                ; preds = %2
  %.not.i = icmp eq ptr %1, null
  br i1 %.not.i, label %rcidm_get_retire.exit, label %6

6:                                                ; preds = %5
  %7 = getelementptr inbounds nuw i8, ptr %.val.i, i64 40
  %8 = load i64, ptr %7, align 8, !tbaa !16
  store i64 %8, ptr %1, align 8, !tbaa !39
  br label %rcidm_get_retire.exit

rcidm_get_retire.exit:                            ; preds = %5, %6, %2
  %.0.i = phi i32 [ 0, %2 ], [ 1, %6 ], [ 1, %5 ]
  ret i32 %.0.i
}